target datalayout = "e-m:e-p270:32:32-p271:32:32-p272:64:64-i64:64-i128:128-f80:128-n8:16:32:64-S128"
target triple = "x86_64-pc-linux-gnu"

%class.ProtoTreeModel = type { %class.QAbstractItemModel, ptr }
%class.QAbstractItemModel = type { %class.QObject }
%class.QObject = type { ptr, %class.QScopedPointer }
%class.QScopedPointer = type { ptr }
%class.QModelIndex = type { i32, i32, i64, ptr }

; Function Attrs: mustprogress nounwind uwtable
define linkonce_odr void @_ZN11QModelIndexC2Ev(ptr noundef nonnull align 8 dereferenceable(24) %0) unnamed_addr #5 comdat align 2 {
  %2 = alloca ptr, align 8
  store ptr %0, ptr %2, align 8
  %3 = load ptr, ptr %2, align 8
  %4 = getelementptr inbounds %class.QModelIndex, ptr %3, i32 0, i32 0
  store i32 -1, ptr %4, align 8
  %5 = getelementptr inbounds %class.QModelIndex, ptr %3, i32 0, i32 1
  store i32 -1, ptr %5, align 4
  %6 = getelementptr inbounds %class.QModelIndex, ptr %3, i32 0, i32 2
  store i64 0, ptr %6, align 8
  %7 = getelementptr inbounds %class.QModelIndex, ptr %3, i32 0, i32 3
  store ptr null, ptr %7, align 8
  ret void
}

; Function Attrs: mustprogress uwtable
define void @_ZN14ProtoTreeModel11setRootNodeEP11_proto_node(ptr noundef nonnull align 8 dereferenceable(24) %0, ptr noundef %1) #0 align 2 personality ptr @__gxx_personality_v0 {
  %3 = alloca ptr, align 8
  %4 = alloca ptr, align 8
  %5 = alloca ptr, align 8
  %6 = alloca i32, align 4
  %7 = alloca i32, align 4
  %8 = alloca %class.QModelIndex, align 8
  store ptr %0, ptr %3, align 8
  store ptr %1, ptr %4, align 8
  %9 = load ptr, ptr %3, align 8
  call void @_ZN18QAbstractItemModel15beginResetModelEv(ptr noundef nonnull align 8 dereferenceable(16) %9)
  %10 = getelementptr inbounds %class.ProtoTreeModel, ptr %9, i32 0, i32 1
  %11 = load ptr, ptr %10, align 8
  %12 = icmp eq ptr %11, null
  br i1 %12, label %14, label %13

13:                                               ; preds = %2
  call void @_ZN9ProtoNodeD1Ev(ptr noundef nonnull align 8 dereferenceable(40) %11) #9
  call void @_ZdlPv(ptr noundef %11) #8
  br label %14

14:                                               ; preds = %13, %2
  %15 = call noalias noundef nonnull ptr @_Znwm(i64 noundef 40) #7
  %16 = load ptr, ptr %4, align 8
  invoke void @_ZN9ProtoNodeC1EP11_proto_nodePS_(ptr noundef nonnull align 8 dereferenceable(40) %15, ptr noundef %16, ptr noundef null)
          to label %17 unwind label %22

17:                                               ; preds = %14
  %18 = getelementptr inbounds %class.ProtoTreeModel, ptr %9, i32 0, i32 1
  store ptr %15, ptr %18, align 8
  call void @_ZN18QAbstractItemModel13endResetModelEv(ptr noundef nonnull align 8 dereferenceable(16) %9)
  %19 = load ptr, ptr %4, align 8
  %20 = icmp ne ptr %19, null
  br i1 %20, label %26, label %21

21:                                               ; preds = %17
  br label %36

22:                                               ; preds = %14
  %23 = landingpad { ptr, i32 }
          cleanup
  %24 = extractvalue { ptr, i32 } %23, 0
  store ptr %24, ptr %5, align 8
  %25 = extractvalue { ptr, i32 } %23, 1
  store i32 %25, ptr %6, align 4
  call void @_ZdlPv(ptr noundef %15) #8
  br label %37

26:                                               ; preds = %17
  %27 = getelementptr inbounds %class.ProtoTreeModel, ptr %9, i32 0, i32 1
  %28 = load ptr, ptr %27, align 8
  %29 = call noundef i32 @_ZNK9ProtoNode13childrenCountEv(ptr noundef nonnull align 8 dereferenceable(40) %28)
  store i32 %29, ptr %7, align 4
  %30 = load i32, ptr %7, align 4
  %31 = icmp slt i32 %30, 1
  br i1 %31, label %32, label %33

32:                                               ; preds = %26
  br label %36

33:                                               ; preds = %26
  call void @_ZN11QModelIndexC2Ev(ptr noundef nonnull align 8 dereferenceable(24) %8) #9
  %34 = load i32, ptr %7, align 4
  %35 = sub i32 %34, 1
  call void @_ZN18QAbstractItemModel15beginInsertRowsERK11QModelIndexii(ptr noundef nonnull align 8 dereferenceable(16) %9, ptr noundef nonnull align 8 dereferenceable(24) %8, i32 noundef 0, i32 noundef %35)
  call void @_ZN18QAbstractItemModel13endInsertRowsEv(ptr noundef nonnull align 8 dereferenceable(16) %9)
  br label %36

36:                                               ; preds = %33, %32, %21
  ret void

37:                                               ; preds = %22
  %38 = load ptr, ptr %5, align 8
  %39 = load i32, ptr %6, align 4
  %40 = insertvalue { ptr, i32 } poison, ptr %38, 0
  %41 = insertvalue { ptr, i32 } %40, i32 %39, 1
  resume { ptr, i32 } %41
}