; Function Attrs: mustprogress uwtable
define void @_ZN14ProtoTreeModel11setRootNodeEP11_proto_node(ptr noundef nonnull align 8 dereferenceable(24) %0, ptr noundef %1) local_unnamed_addr #0 align 2 personality ptr @__gxx_personality_v0 {
  %3 = alloca %class.QModelIndex, align 8
  tail call void @_ZN18QAbstractItemModel15beginResetModelEv(ptr noundef nonnull align 8 dereferenceable(16) %0)
  %4 = getelementptr inbounds i8, ptr %0, i64 16
  %5 = load ptr, ptr %4, align 8
  %6 = icmp eq ptr %5, null
  br i1 %6, label %8, label %7

7:                                                ; preds = %2
  tail call void @_ZN9ProtoNodeD1Ev(ptr noundef nonnull align 8 dereferenceable(40) %5) #12
  tail call void @_ZdlPv(ptr noundef nonnull %5) #11
  br label %8

8:                                                ; preds = %7, %2
  %9 = tail call noalias noundef nonnull dereferenceable(40) ptr @_Znwm(i64 noundef 40) #10
  invoke void @_ZN9ProtoNodeC1EP11_proto_nodePS_(ptr noundef nonnull align 8 dereferenceable(40) %9, ptr noundef %1, ptr noundef null)
          to label %10 unwind label %11

10:                                               ; preds = %8
  store ptr %9, ptr %4, align 8
  tail call void @_ZN18QAbstractItemModel13endResetModelEv(ptr noundef nonnull align 8 dereferenceable(16) %0)
  %.not = icmp eq ptr %1, null
  br i1 %.not, label %21, label %13

11:                                               ; preds = %8
  %12 = landingpad { ptr, i32 }
          cleanup
  tail call void @_ZdlPv(ptr noundef nonnull %9) #11
  resume { ptr, i32 } %12

13:                                               ; preds = %10
  %14 = load ptr, ptr %4, align 8
  %15 = tail call noundef i32 @_ZNK9ProtoNode13childrenCountEv(ptr noundef nonnull align 8 dereferenceable(40) %14)
  %16 = icmp slt i32 %15, 1
  br i1 %16, label %21, label %17

17:                                               ; preds = %13
  store i32 -1, ptr %3, align 8
  %18 = getelementptr inbounds i8, ptr %3, i64 4
  store i32 -1, ptr %18, align 4
  %19 = getelementptr inbounds i8, ptr %3, i64 8
  call void @llvm.memset.p0.i64(ptr noundef nonnull align 8 dereferenceable(16) %19, i8 0, i64 16, i1 false)
  %20 = add nsw i32 %15, -1
  call void @_ZN18QAbstractItemModel15beginInsertRowsERK11QModelIndexii(ptr noundef nonnull align 8 dereferenceable(16) %0, ptr noundef nonnull align 8 dereferenceable(24) %3, i32 noundef 0, i32 noundef %20)
  call void @_ZN18QAbstractItemModel13endInsertRowsEv(ptr noundef nonnull align 8 dereferenceable(16) %0)
  br label %21

21:                                               ; preds = %13, %10, %17
  ret void
}